target datalayout = "e-m:e-p270:32:32-p271:32:32-p272:64:64-i64:64-i128:128-f80:128-n8:16:32:64-S128"
target triple = "x86_64-pc-linux-gnu"

; Function Attrs: nounwind uwtable
define void @ff_vvc_inv_dct2_2(ptr noundef %0, i64 noundef %1, i64 noundef %2) #0 {
  %4 = alloca ptr, align 8
  %5 = alloca i64, align 8
  %6 = alloca i64, align 8
  %7 = alloca i32, align 4
  %8 = alloca i32, align 4
  %9 = alloca i32, align 4
  store ptr %0, ptr %4, align 8, !tbaa !4
  store i64 %1, ptr %5, align 8, !tbaa !9
  store i64 %2, ptr %6, align 8, !tbaa !9
  call void @llvm.lifetime.start.p0(i64 4, ptr %7) #3
  store i32 64, ptr %7, align 4, !tbaa !11
  call void @llvm.lifetime.start.p0(i64 4, ptr %8) #3
  %10 = load ptr, ptr %4, align 8, !tbaa !4
  %11 = load i64, ptr %5, align 8, !tbaa !9
  %12 = mul nsw i64 0, %11
  %13 = getelementptr inbounds i32, ptr %10, i64 %12
  %14 = load i32, ptr %13, align 4, !tbaa !11
  store i32 %14, ptr %8, align 4, !tbaa !11
  call void @llvm.lifetime.start.p0(i64 4, ptr %9) #3
  %15 = load ptr, ptr %4, align 8, !tbaa !4
  %16 = load i64, ptr %5, align 8, !tbaa !9
  %17 = mul nsw i64 1, %16
  %18 = getelementptr inbounds i32, ptr %15, i64 %17
  %19 = load i32, ptr %18, align 4, !tbaa !11
  store i32 %19, ptr %9, align 4, !tbaa !11
  %20 = load i32, ptr %8, align 4, !tbaa !11
  %21 = load i32, ptr %9, align 4, !tbaa !11
  %22 = add nsw i32 %20, %21
  %23 = mul nsw i32 64, %22
  %24 = load ptr, ptr %4, align 8, !tbaa !4
  %25 = load i64, ptr %5, align 8, !tbaa !9
  %26 = mul nsw i64 0, %25
  %27 = getelementptr inbounds i32, ptr %24, i64 %26
  store i32 %23, ptr %27, align 4, !tbaa !11
  %28 = load i32, ptr %8, align 4, !tbaa !11
  %29 = load i32, ptr %9, align 4, !tbaa !11
  %30 = sub nsw i32 %28, %29
  %31 = mul nsw i32 64, %30
  %32 = load ptr, ptr %4, align 8, !tbaa !4
  %33 = load i64, ptr %5, align 8, !tbaa !9
  %34 = mul nsw i64 1, %33
  %35 = getelementptr inbounds i32, ptr %32, i64 %34
  store i32 %31, ptr %35, align 4, !tbaa !11
  call void @llvm.lifetime.end.p0(i64 4, ptr %9) #3
  call void @llvm.lifetime.end.p0(i64 4, ptr %8) #3
  call void @llvm.lifetime.end.p0(i64 4, ptr %7) #3
  ret void
}