; Function Attrs: mustprogress nofree norecurse nosync nounwind willreturn memory(argmem: readwrite) uwtable
define void @ff_vvc_inv_dct2_2(ptr noundef captures(none) %0, i64 noundef %1, i64 noundef %2) local_unnamed_addr #0 {
  %4 = load i32, ptr %0, align 4, !tbaa !4
  %5 = getelementptr inbounds i32, ptr %0, i64 %1
  %6 = load i32, ptr %5, align 4, !tbaa !4
  %7 = add nsw i32 %6, %4
  %8 = shl nsw i32 %7, 6
  store i32 %8, ptr %0, align 4, !tbaa !4
  %9 = sub nsw i32 %4, %6
  %10 = shl nsw i32 %9, 6
  store i32 %10, ptr %5, align 4, !tbaa !4
  ret void
}